; Function Attrs: nounwind uwtable
define i32 @Java_sun_security_pkcs11_wrapper_PKCS11_C_1DecryptUpdate(ptr noundef %0, ptr noundef %1, i64 noundef %2, i64 noundef %3, ptr noundef %4, i32 noundef %5, i32 noundef %6, i64 noundef %7, ptr noundef %8, i32 noundef %9, i32 noundef %10) local_unnamed_addr #0 {
  %12 = alloca i64, align 8
  %13 = tail call ptr @getFunctionList(ptr noundef %0, ptr noundef %1) #2
  %14 = icmp eq ptr %13, null
  br i1 %14, label %61, label %15

15:                                               ; preds = %11
  %.not = icmp eq i64 %3, 0
  br i1 %.not, label %18, label %16

16:                                               ; preds = %15
  %17 = inttoptr i64 %3 to ptr
  br label %24

18:                                               ; preds = %15
  %19 = load ptr, ptr %0, align 8
  %20 = getelementptr inbounds i8, ptr %19, i64 1776
  %21 = load ptr, ptr %20, align 8
  %22 = tail call ptr %21(ptr noundef nonnull %0, ptr noundef %4, ptr noundef null) #2
  %23 = icmp eq ptr %22, null
  br i1 %23, label %61, label %24

24:                                               ; preds = %18, %16
  %.042 = phi ptr [ %17, %16 ], [ %22, %18 ]
  %.not48 = icmp eq i64 %7, 0
  br i1 %.not48, label %27, label %25

25:                                               ; preds = %24
  %26 = inttoptr i64 %7 to ptr
  br label %38

27:                                               ; preds = %24
  %28 = load ptr, ptr %0, align 8
  %29 = getelementptr inbounds i8, ptr %28, i64 1776
  %30 = load ptr, ptr %29, align 8
  %31 = tail call ptr %30(ptr noundef nonnull %0, ptr noundef %8, ptr noundef null) #2
  %32 = icmp eq ptr %31, null
  br i1 %32, label %33, label %38

33:                                               ; preds = %27
  br i1 %.not, label %34, label %61

34:                                               ; preds = %33
  %35 = load ptr, ptr %0, align 8
  %36 = getelementptr inbounds i8, ptr %35, i64 1784
  %37 = load ptr, ptr %36, align 8
  tail call void %37(ptr noundef nonnull %0, ptr noundef %4, ptr noundef %.042, i32 noundef 2) #2
  br label %61

38:                                               ; preds = %27, %25
  %.041 = phi ptr [ %26, %25 ], [ %31, %27 ]
  %39 = sext i32 %10 to i64
  store i64 %39, ptr %12, align 8
  %40 = getelementptr inbounds i8, ptr %13, i64 288
  %41 = load ptr, ptr %40, align 8
  %42 = sext i32 %5 to i64
  %43 = getelementptr inbounds i8, ptr %.042, i64 %42
  %44 = sext i32 %6 to i64
  %45 = sext i32 %9 to i64
  %46 = getelementptr inbounds i8, ptr %.041, i64 %45
  %47 = call i64 %41(i64 noundef %2, ptr noundef %43, i64 noundef %44, ptr noundef %46, ptr noundef nonnull %12) #2
  br i1 %.not, label %48, label %52

48:                                               ; preds = %38
  %49 = load ptr, ptr %0, align 8
  %50 = getelementptr inbounds i8, ptr %49, i64 1784
  %51 = load ptr, ptr %50, align 8
  call void %51(ptr noundef nonnull %0, ptr noundef %4, ptr noundef %.042, i32 noundef 2) #2
  br label %52

52:                                               ; preds = %48, %38
  br i1 %.not48, label %53, label %57

53:                                               ; preds = %52
  %54 = load ptr, ptr %0, align 8
  %55 = getelementptr inbounds i8, ptr %54, i64 1784
  %56 = load ptr, ptr %55, align 8
  call void %56(ptr noundef nonnull %0, ptr noundef %8, ptr noundef %.041, i32 noundef 0) #2
  br label %57

57:                                               ; preds = %53, %52
  %58 = call i64 @ckAssertReturnValueOK(ptr noundef %0, i64 noundef %47) #2
  %59 = load i64, ptr %12, align 8
  %60 = trunc i64 %59 to i32
  br label %61

61:                                               ; preds = %33, %34, %18, %11, %57
  %.0 = phi i32 [ %60, %57 ], [ 0, %11 ], [ 0, %18 ], [ 0, %34 ], [ 0, %33 ]
  ret i32 %.0
}